; ModuleID = '58/293.c'
source_filename = "58/293.c"
target datalayout = "e-m:e-p270:32:32-p271:32:32-p272:64:64-i64:64-f80:128-n8:16:32:64-S128"
target triple = "x86_64-pc-linux-gnu"

@.str = private unnamed_addr constant [4 x i8] c"%d\0A\00", align 1
@.str.1 = private unnamed_addr constant [3 x i8] c"0\0A\00", align 1
@.str.2 = private unnamed_addr constant [3 x i8] c"1\0A\00", align 1

; Function Attrs: noinline nounwind uwtable
define dso_local i32 @panduan(i8 signext %0) #0 {
  %2 = alloca i32, align 4
  %3 = alloca i8, align 1
  store i8 %0, i8* %3, align 1
  %4 = load i8, i8* %3, align 1
  %5 = sext i8 %4 to i32
  %6 = icmp sge i32 %5, 48
  br i1 %6, label %7, label %12

7:                                                ; preds = %1
  %8 = load i8, i8* %3, align 1
  %9 = sext i8 %8 to i32
  %10 = icmp sle i32 %9, 57
  br i1 %10, label %11, label %12

11:                                               ; preds = %7
  store i32 0, i32* %2, align 4
  br label %36

12:                                               ; preds = %7, %1
  %13 = load i8, i8* %3, align 1
  %14 = sext i8 %13 to i32
  %15 = icmp sge i32 %14, 97
  br i1 %15, label %16, label %21

16:                                               ; preds = %12
  %17 = load i8, i8* %3, align 1
  %18 = sext i8 %17 to i32
  %19 = icmp sle i32 %18, 122
  br i1 %19, label %20, label %21

20:                                               ; preds = %16
  store i32 0, i32* %2, align 4
  br label %36

21:                                               ; preds = %16, %12
  %22 = load i8, i8* %3, align 1
  %23 = sext i8 %22 to i32
  %24 = icmp sge i32 %23, 65
  br i1 %24, label %25, label %30

25:                                               ; preds = %21
  %26 = load i8, i8* %3, align 1
  %27 = sext i8 %26 to i32
  %28 = icmp sle i32 %27, 90
  br i1 %28, label %29, label %30

29:                                               ; preds = %25
  store i32 0, i32* %2, align 4
  br label %36

30:                                               ; preds = %25, %21
  %31 = load i8, i8* %3, align 1
  %32 = sext i8 %31 to i32
  %33 = icmp eq i32 %32, 95
  br i1 %33, label %34, label %35

34:                                               ; preds = %30
  store i32 0, i32* %2, align 4
  br label %36

35:                                               ; preds = %30
  store i32 1, i32* %2, align 4
  br label %36

36:                                               ; preds = %35, %34, %29, %20, %11
  %37 = load i32, i32* %2, align 4
  ret i32 %37
}

; Function Attrs: noinline nounwind uwtable
define dso_local i32 @main() #0 {
  %1 = alloca i32, align 4
  %2 = alloca [81 x i8], align 16
  %3 = alloca i32, align 4
  %4 = alloca i32, align 4
  %5 = alloca i32, align 4
  %6 = alloca i32, align 4
  store i32 0, i32* %1, align 4
  %7 = call i32 (i8*, ...) @__isoc99_scanf(i8* getelementptr inbounds ([4 x i8], [4 x i8]* @.str, i64 0, i64 0), i32* %3)
  store i32 0, i32* %4, align 4
  br label %8

8:                                                ; preds = %66, %0
  %9 = load i32, i32* %4, align 4
  %10 = load i32, i32* %3, align 4
  %11 = icmp slt i32 %9, %10
  br i1 %11, label %12, label %69

12:                                               ; preds = %8
  %13 = getelementptr inbounds [81 x i8], [81 x i8]* %2, i64 0, i64 0
  %14 = call i32 (i8*, ...) bitcast (i32 (...)* @gets to i32 (i8*, ...)*)(i8* %13)
  %15 = getelementptr inbounds [81 x i8], [81 x i8]* %2, i64 0, i64 0
  %16 = call i64 @strlen(i8* %15) #3
  %17 = trunc i64 %16 to i32
  store i32 %17, i32* %5, align 4
  %18 = getelementptr inbounds [81 x i8], [81 x i8]* %2, i64 0, i64 0
  %19 = load i8, i8* %18, align 16
  %20 = sext i8 %19 to i32
  %21 = icmp eq i32 %20, 95
  br i1 %21, label %44, label %22

22:                                               ; preds = %12
  %23 = getelementptr inbounds [81 x i8], [81 x i8]* %2, i64 0, i64 0
  %24 = load i8, i8* %23, align 16
  %25 = sext i8 %24 to i32
  %26 = icmp sge i32 %25, 97
  br i1 %26, label %27, label %32

27:                                               ; preds = %22
  %28 = getelementptr inbounds [81 x i8], [81 x i8]* %2, i64 0, i64 0
  %29 = load i8, i8* %28, align 16
  %30 = sext i8 %29 to i32
  %31 = icmp sle i32 %30, 122
  br i1 %31, label %44, label %32

32:                                               ; preds = %27, %22
  %33 = getelementptr inbounds [81 x i8], [81 x i8]* %2, i64 0, i64 0
  %34 = load i8, i8* %33, align 16
  %35 = sext i8 %34 to i32
  %36 = icmp sge i32 %35, 65
  br i1 %36, label %37, label %42

37:                                               ; preds = %32
  %38 = getelementptr inbounds [81 x i8], [81 x i8]* %2, i64 0, i64 0
  %39 = load i8, i8* %38, align 16
  %40 = sext i8 %39 to i32
  %41 = icmp sle i32 %40, 90
  br i1 %41, label %44, label %42

42:                                               ; preds = %37, %32
  %43 = call i32 (i8*, ...) @printf(i8* getelementptr inbounds ([3 x i8], [3 x i8]* @.str.1, i64 0, i64 0))
  br label %66

44:                                               ; preds = %37, %27, %12
  store i32 0, i32* %6, align 4
  br label %45

45:                                               ; preds = %59, %44
  %46 = load i32, i32* %6, align 4
  %47 = load i32, i32* %5, align 4
  %48 = icmp slt i32 %46, %47
  br i1 %48, label %49, label %62

49:                                               ; preds = %45
  %50 = load i32, i32* %6, align 4
  %51 = sext i32 %50 to i64
  %52 = getelementptr inbounds [81 x i8], [81 x i8]* %2, i64 0, i64 %51
  %53 = load i8, i8* %52, align 1
  %54 = call i32 @panduan(i8 signext %53)
  %55 = icmp ne i32 %54, 0
  br i1 %55, label %56, label %58

56:                                               ; preds = %49
  %57 = call i32 (i8*, ...) @printf(i8* getelementptr inbounds ([3 x i8], [3 x i8]* @.str.1, i64 0, i64 0))
  br label %65

58:                                               ; preds = %49
  br label %59

59:                                               ; preds = %58
  %60 = load i32, i32* %6, align 4
  %61 = add nsw i32 %60, 1
  store i32 %61, i32* %6, align 4
  br label %45

62:                                               ; preds = %45
  br label %63

63:                                               ; preds = %62
  %64 = call i32 (i8*, ...) @printf(i8* getelementptr inbounds ([3 x i8], [3 x i8]* @.str.2, i64 0, i64 0))
  br label %65

65:                                               ; preds = %63, %56
  br label %66

66:                                               ; preds = %65, %42
  %67 = load i32, i32* %4, align 4
  %68 = add nsw i32 %67, 1
  store i32 %68, i32* %4, align 4
  br label %8

69:                                               ; preds = %8
  %70 = load i32, i32* %1, align 4
  ret i32 %70
}

declare dso_local i32 @__isoc99_scanf(i8*, ...) #1

declare dso_local i32 @gets(...) #1

; Function Attrs: nounwind readonly
declare dso_local i64 @strlen(i8*) #2

declare dso_local i32 @printf(i8*, ...) #1


!llvm.module.flags = !{!0}
!llvm.ident = !{!1}

!0 = !{i32 1, !"wchar_size", i32 4}
!1 = !{!"clang version 10.0.0-4ubuntu1 "}
