; ModuleID = 'source-C-CXX/57/293.c'
source_filename = "source-C-CXX/57/293.c"
target datalayout = "e-m:e-p270:32:32-p271:32:32-p272:64:64-i64:64-f80:128-n8:16:32:64-S128"
target triple = "x86_64-pc-linux-gnu"

@.str = private unnamed_addr constant [4 x i8] c"%d\0A\00", align 1
@str.3 = private unnamed_addr constant [2 x i8] c"1\00", align 1
@str.4 = private unnamed_addr constant [2 x i8] c"0\00", align 1

; Function Attrs: mustprogress nofree norecurse nosync nounwind readnone sspstrong uwtable willreturn
define dso_local i32 @panduan(i8 signext %0) local_unnamed_addr #0 {
  %2 = add i8 %0, -48
  %3 = icmp ugt i8 %2, 9
  %4 = add i8 %0, -97
  %5 = icmp ugt i8 %4, 25
  %6 = add i8 %0, -65
  %7 = icmp ugt i8 %6, 25
  %8 = and i1 %3, %5
  %9 = select i1 %8, i1 %7, i1 false
  %10 = icmp ne i8 %0, 95
  %11 = select i1 %9, i1 %10, i1 false
  %12 = zext i1 %11 to i32
  ret i32 %12
}

; Function Attrs: nounwind sspstrong uwtable
define dso_local i32 @main() local_unnamed_addr #1 {
  %1 = alloca [81 x i8], align 16
  %2 = alloca i32, align 4
  %3 = getelementptr inbounds [81 x i8], [81 x i8]* %1, i64 0, i64 0
  call void @llvm.lifetime.start.p0i8(i64 81, i8* nonnull %3) #7
  %4 = bitcast i32* %2 to i8*
  call void @llvm.lifetime.start.p0i8(i64 4, i8* nonnull %4) #7
  %5 = call i32 (i8*, ...) @__isoc99_scanf(i8* getelementptr inbounds ([4 x i8], [4 x i8]* @.str, i64 0, i64 0), i32* nonnull %2)
  %6 = load i32, i32* %2, align 4, !tbaa !5
  %7 = icmp sgt i32 %6, 0
  br i1 %7, label %9, label %8

8:                                                ; preds = %51, %0
  call void @llvm.lifetime.end.p0i8(i64 4, i8* nonnull %4) #7
  call void @llvm.lifetime.end.p0i8(i64 81, i8* nonnull %3) #7
  ret i32 0

9:                                                ; preds = %0, %51
  %10 = phi i32 [ %54, %51 ], [ 0, %0 ]
  %11 = call i32 (i8*, ...) bitcast (i32 (...)* @gets to i32 (i8*, ...)*)(i8* nonnull %3) #7
  %12 = call i64 @strlen(i8* noundef nonnull %3) #8
  %13 = load i8, i8* %3, align 16, !tbaa !9
  %14 = icmp eq i8 %13, 95
  %15 = and i8 %13, -33
  %16 = add i8 %15, -65
  %17 = icmp ult i8 %16, 26
  %18 = or i1 %17, %14
  br i1 %18, label %19, label %51

19:                                               ; preds = %9
  %20 = trunc i64 %12 to i32
  %21 = icmp sgt i32 %20, 0
  br i1 %21, label %22, label %51

22:                                               ; preds = %19
  %23 = and i64 %12, 4294967295
  %24 = add i8 %13, -48
  %25 = icmp ult i8 %24, 10
  %26 = add i8 %13, -97
  %27 = icmp ult i8 %26, 26
  %28 = add i8 %13, -65
  %29 = icmp ult i8 %28, 26
  %30 = or i1 %25, %27
  %31 = select i1 %30, i1 true, i1 %29
  %32 = icmp eq i8 %13, 95
  %33 = select i1 %31, i1 true, i1 %32
  br i1 %33, label %34, label %51

34:                                               ; preds = %22, %37
  %35 = phi i64 [ %50, %37 ], [ 1, %22 ]
  %36 = icmp eq i64 %35, %23
  br i1 %36, label %51, label %37, !llvm.loop !10

37:                                               ; preds = %34
  %38 = getelementptr inbounds [81 x i8], [81 x i8]* %1, i64 0, i64 %35
  %39 = load i8, i8* %38, align 1, !tbaa !9
  %40 = add i8 %39, -48
  %41 = icmp ult i8 %40, 10
  %42 = add i8 %39, -97
  %43 = icmp ult i8 %42, 26
  %44 = add i8 %39, -65
  %45 = icmp ult i8 %44, 26
  %46 = or i1 %41, %43
  %47 = select i1 %46, i1 true, i1 %45
  %48 = icmp eq i8 %39, 95
  %49 = select i1 %47, i1 true, i1 %48
  %50 = add nuw nsw i64 %35, 1
  br i1 %49, label %34, label %51

51:                                               ; preds = %37, %34, %22, %19, %9
  %52 = phi i8* [ getelementptr inbounds ([2 x i8], [2 x i8]* @str.4, i64 0, i64 0), %9 ], [ getelementptr inbounds ([2 x i8], [2 x i8]* @str.3, i64 0, i64 0), %19 ], [ getelementptr inbounds ([2 x i8], [2 x i8]* @str.4, i64 0, i64 0), %22 ], [ getelementptr inbounds ([2 x i8], [2 x i8]* @str.3, i64 0, i64 0), %34 ], [ getelementptr inbounds ([2 x i8], [2 x i8]* @str.4, i64 0, i64 0), %37 ]
  %53 = call i32 @puts(i8* nonnull dereferenceable(1) %52)
  %54 = add nuw nsw i32 %10, 1
  %55 = load i32, i32* %2, align 4, !tbaa !5
  %56 = icmp slt i32 %54, %55
  br i1 %56, label %9, label %8, !llvm.loop !12
}

; Function Attrs: argmemonly mustprogress nofree nosync nounwind willreturn
declare void @llvm.lifetime.start.p0i8(i64 immarg, i8* nocapture) #2

; Function Attrs: nofree nounwind
declare noundef i32 @__isoc99_scanf(i8* nocapture noundef readonly, ...) local_unnamed_addr #3

declare i32 @gets(...) local_unnamed_addr #4

; Function Attrs: argmemonly mustprogress nofree nounwind readonly willreturn
declare i64 @strlen(i8* nocapture) local_unnamed_addr #5

; Function Attrs: argmemonly mustprogress nofree nosync nounwind willreturn
declare void @llvm.lifetime.end.p0i8(i64 immarg, i8* nocapture) #2

; Function Attrs: nofree nounwind
declare noundef i32 @puts(i8* nocapture noundef readonly) local_unnamed_addr #6


!llvm.module.flags = !{!0, !1, !2, !3}
!llvm.ident = !{!4}

!0 = !{i32 1, !"wchar_size", i32 4}
!1 = !{i32 7, !"PIC Level", i32 2}
!2 = !{i32 7, !"PIE Level", i32 2}
!3 = !{i32 7, !"uwtable", i32 1}
!4 = !{!"clang version 13.0.0"}
!5 = !{!6, !6, i64 0}
!6 = !{!"int", !7, i64 0}
!7 = !{!"omnipotent char", !8, i64 0}
!8 = !{!"Simple C/C++ TBAA"}
!9 = !{!7, !7, i64 0}
!10 = distinct !{!10, !11}
!11 = !{!"llvm.loop.mustprogress"}
!12 = distinct !{!12, !11}
